; ModuleID = 'source-C-CXX/61/2059.c'
source_filename = "source-C-CXX/61/2059.c"
target datalayout = "e-m:e-p270:32:32-p271:32:32-p272:64:64-i64:64-f80:128-n8:16:32:64-S128"
target triple = "x86_64-pc-linux-gnu"

@.str = private unnamed_addr constant [3 x i8] c"%c\00", align 1

; Function Attrs: nofree nounwind sspstrong uwtable
define dso_local i32 @main() local_unnamed_addr #0 {
  %1 = alloca [1000 x i8], align 16
  %2 = getelementptr inbounds [1000 x i8], [1000 x i8]* %1, i64 0, i64 0
  call void @llvm.lifetime.start.p0i8(i64 1000, i8* nonnull %2) #5
  call void @llvm.memset.p0i8.i64(i8* noundef nonnull align 16 dereferenceable(1000) %2, i8 0, i64 1000, i1 false)
  store i8 32, i8* %2, align 16
  br label %3

3:                                                ; preds = %19, %0
  %4 = phi i64 [ 0, %0 ], [ %22, %19 ]
  %5 = getelementptr inbounds [1000 x i8], [1000 x i8]* %1, i64 0, i64 %4
  %6 = call i32 (i8*, ...) @__isoc99_scanf(i8* getelementptr inbounds ([3 x i8], [3 x i8]* @.str, i64 0, i64 0), i8* nonnull %5)
  %7 = load i8, i8* %5, align 1, !tbaa !5
  %8 = icmp eq i8 %7, 32
  br i1 %8, label %11, label %9

9:                                                ; preds = %3
  %10 = sext i8 %7 to i32
  br label %16

11:                                               ; preds = %3
  %12 = add nsw i64 %4, -1
  %13 = getelementptr inbounds [1000 x i8], [1000 x i8]* %1, i64 0, i64 %12
  %14 = load i8, i8* %13, align 1, !tbaa !5
  %15 = icmp eq i8 %14, 32
  br i1 %15, label %19, label %16

16:                                               ; preds = %11, %9
  %17 = phi i32 [ %10, %9 ], [ 32, %11 ]
  %18 = call i32 @putchar(i32 %17)
  br label %19

19:                                               ; preds = %16, %11
  %20 = load i8, i8* %5, align 1, !tbaa !5
  %21 = icmp eq i8 %20, 46
  %22 = add nuw nsw i64 %4, 1
  %23 = icmp eq i64 %22, 1000
  %24 = select i1 %21, i1 true, i1 %23
  br i1 %24, label %25, label %3, !llvm.loop !8

25:                                               ; preds = %19
  call void @llvm.lifetime.end.p0i8(i64 1000, i8* nonnull %2) #5
  ret i32 7
}

; Function Attrs: argmemonly mustprogress nofree nosync nounwind willreturn
declare void @llvm.lifetime.start.p0i8(i64 immarg, i8* nocapture) #1

; Function Attrs: argmemonly mustprogress nofree nounwind willreturn writeonly
declare void @llvm.memset.p0i8.i64(i8* nocapture writeonly, i8, i64, i1 immarg) #2

; Function Attrs: nofree nounwind
declare noundef i32 @__isoc99_scanf(i8* nocapture noundef readonly, ...) local_unnamed_addr #3

; Function Attrs: argmemonly mustprogress nofree nosync nounwind willreturn
declare void @llvm.lifetime.end.p0i8(i64 immarg, i8* nocapture) #1

; Function Attrs: nofree nounwind
declare noundef i32 @putchar(i32 noundef) local_unnamed_addr #4


!llvm.module.flags = !{!0, !1, !2, !3}
!llvm.ident = !{!4}

!0 = !{i32 1, !"wchar_size", i32 4}
!1 = !{i32 7, !"PIC Level", i32 2}
!2 = !{i32 7, !"PIE Level", i32 2}
!3 = !{i32 7, !"uwtable", i32 1}
!4 = !{!"clang version 13.0.0"}
!5 = !{!6, !6, i64 0}
!6 = !{!"omnipotent char", !7, i64 0}
!7 = !{!"Simple C/C++ TBAA"}
!8 = distinct !{!8, !9}
!9 = !{!"llvm.loop.mustprogress"}
